target datalayout = "e-m:e-p270:32:32-p271:32:32-p272:64:64-i64:64-i128:128-f80:128-n8:16:32:64-S128"
target triple = "x86_64-pc-linux-gnu"

%struct.strbuf = type { i64, i64, ptr }
%struct.startup_info = type { i32, ptr, ptr }
%struct.cache_def = type { %struct.strbuf, i32, i32, i32 }

@startup_info = external global ptr, align 8
@removal = internal global %struct.strbuf { i64 0, i64 0, ptr @strbuf_slopbuf }, align 8
@strbuf_slopbuf = external global [0 x i8], align 1
@default_cache = internal global { %struct.strbuf, i32, i32, i32, [4 x i8] } { %struct.strbuf { i64 0, i64 0, ptr @strbuf_slopbuf }, i32 0, i32 0, i32 0, [4 x i8] zeroinitializer }, align 8
@.str.3 = private unnamed_addr constant [11 x i8] c"./strbuf.h\00", align 1
@.str.4 = private unnamed_addr constant [30 x i8] c"strbuf_setlen() beyond buffer\00", align 1

; Function Attrs: inlinehint nounwind uwtable
define internal void @strbuf_setlen(ptr noundef %0, i64 noundef %1) #4 {
  %3 = alloca ptr, align 8
  %4 = alloca i64, align 8
  store ptr %0, ptr %3, align 8, !tbaa !40
  store i64 %1, ptr %4, align 8, !tbaa !42
  %5 = load i64, ptr %4, align 8, !tbaa !42
  %6 = load ptr, ptr %3, align 8, !tbaa !40
  %7 = getelementptr inbounds nuw %struct.strbuf, ptr %6, i32 0, i32 0
  %8 = load i64, ptr %7, align 8, !tbaa !43
  %9 = icmp ne i64 %8, 0
  br i1 %9, label %10, label %15

10:                                               ; preds = %2
  %11 = load ptr, ptr %3, align 8, !tbaa !40
  %12 = getelementptr inbounds nuw %struct.strbuf, ptr %11, i32 0, i32 0
  %13 = load i64, ptr %12, align 8, !tbaa !43
  %14 = sub i64 %13, 1
  br label %16

15:                                               ; preds = %2
  br label %16

16:                                               ; preds = %15, %10
  %17 = phi i64 [ %14, %10 ], [ 0, %15 ]
  %18 = icmp ugt i64 %5, %17
  br i1 %18, label %19, label %20

19:                                               ; preds = %16
  call void (ptr, i32, ptr, ...) @BUG_fl(ptr noundef @.str.3, i32 noundef 167, ptr noundef @.str.4) #11
  unreachable

20:                                               ; preds = %16
  %21 = load i64, ptr %4, align 8, !tbaa !42
  %22 = load ptr, ptr %3, align 8, !tbaa !40
  %23 = getelementptr inbounds nuw %struct.strbuf, ptr %22, i32 0, i32 1
  store i64 %21, ptr %23, align 8, !tbaa !20
  %24 = load ptr, ptr %3, align 8, !tbaa !40
  %25 = getelementptr inbounds nuw %struct.strbuf, ptr %24, i32 0, i32 2
  %26 = load ptr, ptr %25, align 8, !tbaa !17
  %27 = icmp ne ptr %26, @strbuf_slopbuf
  br i1 %27, label %28, label %34

28:                                               ; preds = %20
  %29 = load ptr, ptr %3, align 8, !tbaa !40
  %30 = getelementptr inbounds nuw %struct.strbuf, ptr %29, i32 0, i32 2
  %31 = load ptr, ptr %30, align 8, !tbaa !17
  %32 = load i64, ptr %4, align 8, !tbaa !42
  %33 = getelementptr inbounds nuw i8, ptr %31, i64 %32
  store i8 0, ptr %33, align 1, !tbaa !21
  br label %35

34:                                               ; preds = %20
  br label %35

35:                                               ; preds = %34, %28
  ret void
}

; Function Attrs: inlinehint nounwind uwtable
define internal void @reset_lstat_cache(ptr noundef %0) #4 {
  %2 = alloca ptr, align 8
  store ptr %0, ptr %2, align 8, !tbaa !4
  %3 = load ptr, ptr %2, align 8, !tbaa !4
  %4 = getelementptr inbounds nuw %struct.cache_def, ptr %3, i32 0, i32 0
  call void @strbuf_setlen(ptr noundef %4, i64 noundef 0)
  %5 = load ptr, ptr %2, align 8, !tbaa !4
  %6 = getelementptr inbounds nuw %struct.cache_def, ptr %5, i32 0, i32 1
  store i32 0, ptr %6, align 8, !tbaa !29
  ret void
}

; Function Attrs: nounwind uwtable
define dso_local void @invalidate_lstat_cache() #0 {
  call void @reset_lstat_cache(ptr noundef @default_cache)
  ret void
}

; Function Attrs: nounwind uwtable
define dso_local i32 @lstat_cache_aware_rmdir(ptr noundef %0) #0 {
  %2 = alloca ptr, align 8
  %3 = alloca i32, align 4
  store ptr %0, ptr %2, align 8, !tbaa !9
  call void @llvm.lifetime.start.p0(i64 4, ptr %3) #8
  %4 = load ptr, ptr %2, align 8, !tbaa !9
  %5 = call i32 @rmdir(ptr noundef %4) #8
  store i32 %5, ptr %3, align 4, !tbaa !11
  %6 = load i32, ptr %3, align 4, !tbaa !11
  %7 = icmp ne i32 %6, 0
  br i1 %7, label %9, label %8

8:                                                ; preds = %1
  call void @invalidate_lstat_cache()
  br label %9

9:                                                ; preds = %8, %1
  %10 = load i32, ptr %3, align 4, !tbaa !11
  call void @llvm.lifetime.end.p0(i64 4, ptr %3) #8
  ret i32 %10
}

; Function Attrs: nounwind uwtable
define internal void @do_remove_scheduled_dirs(i32 noundef %0) #0 {
  %2 = alloca i32, align 4
  store i32 %0, ptr %2, align 4, !tbaa !11
  br label %3

3:                                                ; preds = %46, %1
  %4 = load i64, ptr getelementptr inbounds nuw (%struct.strbuf, ptr @removal, i32 0, i32 1), align 8, !tbaa !20
  %5 = load i32, ptr %2, align 4, !tbaa !11
  %6 = sext i32 %5 to i64
  %7 = icmp ugt i64 %4, %6
  br i1 %7, label %8, label %47

8:                                                ; preds = %3
  %9 = load ptr, ptr getelementptr inbounds nuw (%struct.strbuf, ptr @removal, i32 0, i32 2), align 8, !tbaa !17
  %10 = load i64, ptr getelementptr inbounds nuw (%struct.strbuf, ptr @removal, i32 0, i32 1), align 8, !tbaa !20
  %11 = getelementptr inbounds nuw i8, ptr %9, i64 %10
  store i8 0, ptr %11, align 1, !tbaa !21
  %12 = load ptr, ptr @startup_info, align 8, !tbaa !13
  %13 = getelementptr inbounds nuw %struct.startup_info, ptr %12, i32 0, i32 2
  %14 = load ptr, ptr %13, align 8, !tbaa !15
  %15 = icmp ne ptr %14, null
  br i1 %15, label %16, label %23

16:                                               ; preds = %8
  %17 = load ptr, ptr getelementptr inbounds nuw (%struct.strbuf, ptr @removal, i32 0, i32 2), align 8, !tbaa !17
  %18 = load ptr, ptr @startup_info, align 8, !tbaa !13
  %19 = getelementptr inbounds nuw %struct.startup_info, ptr %18, i32 0, i32 2
  %20 = load ptr, ptr %19, align 8, !tbaa !15
  %21 = call i32 @strcmp(ptr noundef %17, ptr noundef %20) #10
  %22 = icmp ne i32 %21, 0
  br i1 %22, label %23, label %27

23:                                               ; preds = %16, %8
  %24 = load ptr, ptr getelementptr inbounds nuw (%struct.strbuf, ptr @removal, i32 0, i32 2), align 8, !tbaa !17
  %25 = call i32 @lstat_cache_aware_rmdir(ptr noundef %24)
  %26 = icmp ne i32 %25, 0
  br i1 %26, label %27, label %28

27:                                               ; preds = %23, %16
  br label %47

28:                                               ; preds = %23
  br label %29

29:                                               ; preds = %44, %28
  %30 = load i64, ptr getelementptr inbounds nuw (%struct.strbuf, ptr @removal, i32 0, i32 1), align 8, !tbaa !20
  %31 = add i64 %30, -1
  store i64 %31, ptr getelementptr inbounds nuw (%struct.strbuf, ptr @removal, i32 0, i32 1), align 8, !tbaa !20
  br label %32

32:                                               ; preds = %29
  %33 = load i64, ptr getelementptr inbounds nuw (%struct.strbuf, ptr @removal, i32 0, i32 1), align 8, !tbaa !20
  %34 = load i32, ptr %2, align 4, !tbaa !11
  %35 = sext i32 %34 to i64
  %36 = icmp ugt i64 %33, %35
  br i1 %36, label %37, label %44

37:                                               ; preds = %32
  %38 = load ptr, ptr getelementptr inbounds nuw (%struct.strbuf, ptr @removal, i32 0, i32 2), align 8, !tbaa !17
  %39 = load i64, ptr getelementptr inbounds nuw (%struct.strbuf, ptr @removal, i32 0, i32 1), align 8, !tbaa !20
  %40 = getelementptr inbounds nuw i8, ptr %38, i64 %39
  %41 = load i8, ptr %40, align 1, !tbaa !21
  %42 = sext i8 %41 to i32
  %43 = icmp ne i32 %42, 47
  br label %44

44:                                               ; preds = %37, %32
  %45 = phi i1 [ false, %32 ], [ %43, %37 ]
  br i1 %45, label %29, label %46, !llvm.loop !27

46:                                               ; preds = %44
  br label %3, !llvm.loop !28

47:                                               ; preds = %27, %3
  %48 = load i32, ptr %2, align 4, !tbaa !11
  %49 = sext i32 %48 to i64
  store i64 %49, ptr getelementptr inbounds nuw (%struct.strbuf, ptr @removal, i32 0, i32 1), align 8, !tbaa !20
  ret void
}

; Function Attrs: nounwind uwtable
define internal i32 @longest_path_match(ptr noundef %0, i32 noundef %1, ptr noundef %2, i32 noundef %3, ptr noundef %4) #0 {
  %6 = alloca ptr, align 8
  %7 = alloca i32, align 4
  %8 = alloca ptr, align 8
  %9 = alloca i32, align 4
  %10 = alloca ptr, align 8
  %11 = alloca i32, align 4
  %12 = alloca i32, align 4
  %13 = alloca i32, align 4
  %14 = alloca i32, align 4
  store ptr %0, ptr %6, align 8, !tbaa !9
  store i32 %1, ptr %7, align 4, !tbaa !11
  store ptr %2, ptr %8, align 8, !tbaa !9
  store i32 %3, ptr %9, align 4, !tbaa !11
  store ptr %4, ptr %10, align 8, !tbaa !24
  call void @llvm.lifetime.start.p0(i64 4, ptr %11) #8
  call void @llvm.lifetime.start.p0(i64 4, ptr %12) #8
  store i32 0, ptr %12, align 4, !tbaa !11
  call void @llvm.lifetime.start.p0(i64 4, ptr %13) #8
  store i32 0, ptr %13, align 4, !tbaa !11
  call void @llvm.lifetime.start.p0(i64 4, ptr %14) #8
  store i32 0, ptr %14, align 4, !tbaa !11
  %15 = load i32, ptr %7, align 4, !tbaa !11
  %16 = load i32, ptr %9, align 4, !tbaa !11
  %17 = icmp slt i32 %15, %16
  br i1 %17, label %18, label %20

18:                                               ; preds = %5
  %19 = load i32, ptr %7, align 4, !tbaa !11
  br label %22

20:                                               ; preds = %5
  %21 = load i32, ptr %9, align 4, !tbaa !11
  br label %22

22:                                               ; preds = %20, %18
  %23 = phi i32 [ %19, %18 ], [ %21, %20 ]
  store i32 %23, ptr %11, align 4, !tbaa !11
  br label %24

24:                                               ; preds = %55, %22
  %25 = load i32, ptr %14, align 4, !tbaa !11
  %26 = load i32, ptr %11, align 4, !tbaa !11
  %27 = icmp slt i32 %25, %26
  br i1 %27, label %28, label %42

28:                                               ; preds = %24
  %29 = load ptr, ptr %6, align 8, !tbaa !9
  %30 = load i32, ptr %14, align 4, !tbaa !11
  %31 = sext i32 %30 to i64
  %32 = getelementptr inbounds i8, ptr %29, i64 %31
  %33 = load i8, ptr %32, align 1, !tbaa !21
  %34 = sext i8 %33 to i32
  %35 = load ptr, ptr %8, align 8, !tbaa !9
  %36 = load i32, ptr %14, align 4, !tbaa !11
  %37 = sext i32 %36 to i64
  %38 = getelementptr inbounds i8, ptr %35, i64 %37
  %39 = load i8, ptr %38, align 1, !tbaa !21
  %40 = sext i8 %39 to i32
  %41 = icmp eq i32 %34, %40
  br label %42

42:                                               ; preds = %28, %24
  %43 = phi i1 [ false, %24 ], [ %41, %28 ]
  br i1 %43, label %44, label %58

44:                                               ; preds = %42
  %45 = load ptr, ptr %6, align 8, !tbaa !9
  %46 = load i32, ptr %14, align 4, !tbaa !11
  %47 = sext i32 %46 to i64
  %48 = getelementptr inbounds i8, ptr %45, i64 %47
  %49 = load i8, ptr %48, align 1, !tbaa !21
  %50 = sext i8 %49 to i32
  %51 = icmp eq i32 %50, 47
  br i1 %51, label %52, label %55

52:                                               ; preds = %44
  %53 = load i32, ptr %12, align 4, !tbaa !11
  store i32 %53, ptr %13, align 4, !tbaa !11
  %54 = load i32, ptr %14, align 4, !tbaa !11
  store i32 %54, ptr %12, align 4, !tbaa !11
  br label %55

55:                                               ; preds = %52, %44
  %56 = load i32, ptr %14, align 4, !tbaa !11
  %57 = add nsw i32 %56, 1
  store i32 %57, ptr %14, align 4, !tbaa !11
  br label %24, !llvm.loop !26

58:                                               ; preds = %42
  %59 = load i32, ptr %14, align 4, !tbaa !11
  %60 = load i32, ptr %11, align 4, !tbaa !11
  %61 = icmp sge i32 %59, %60
  br i1 %61, label %62, label %93

62:                                               ; preds = %58
  %63 = load i32, ptr %7, align 4, !tbaa !11
  %64 = load i32, ptr %9, align 4, !tbaa !11
  %65 = icmp sgt i32 %63, %64
  br i1 %65, label %66, label %74

66:                                               ; preds = %62
  %67 = load ptr, ptr %6, align 8, !tbaa !9
  %68 = load i32, ptr %9, align 4, !tbaa !11
  %69 = sext i32 %68 to i64
  %70 = getelementptr inbounds i8, ptr %67, i64 %69
  %71 = load i8, ptr %70, align 1, !tbaa !21
  %72 = sext i8 %71 to i32
  %73 = icmp eq i32 %72, 47
  br i1 %73, label %90, label %74

74:                                               ; preds = %66, %62
  %75 = load i32, ptr %7, align 4, !tbaa !11
  %76 = load i32, ptr %9, align 4, !tbaa !11
  %77 = icmp slt i32 %75, %76
  br i1 %77, label %78, label %86

78:                                               ; preds = %74
  %79 = load ptr, ptr %8, align 8, !tbaa !9
  %80 = load i32, ptr %7, align 4, !tbaa !11
  %81 = sext i32 %80 to i64
  %82 = getelementptr inbounds i8, ptr %79, i64 %81
  %83 = load i8, ptr %82, align 1, !tbaa !21
  %84 = sext i8 %83 to i32
  %85 = icmp eq i32 %84, 47
  br i1 %85, label %90, label %86

86:                                               ; preds = %78, %74
  %87 = load i32, ptr %7, align 4, !tbaa !11
  %88 = load i32, ptr %9, align 4, !tbaa !11
  %89 = icmp eq i32 %87, %88
  br i1 %89, label %90, label %93

90:                                               ; preds = %86, %78, %66
  %91 = load i32, ptr %12, align 4, !tbaa !11
  store i32 %91, ptr %13, align 4, !tbaa !11
  %92 = load i32, ptr %14, align 4, !tbaa !11
  store i32 %92, ptr %12, align 4, !tbaa !11
  br label %93

93:                                               ; preds = %90, %86, %58
  %94 = load i32, ptr %13, align 4, !tbaa !11
  %95 = load ptr, ptr %10, align 8, !tbaa !24
  store i32 %94, ptr %95, align 4, !tbaa !11
  %96 = load i32, ptr %12, align 4, !tbaa !11
  call void @llvm.lifetime.end.p0(i64 4, ptr %14) #8
  call void @llvm.lifetime.end.p0(i64 4, ptr %13) #8
  call void @llvm.lifetime.end.p0(i64 4, ptr %12) #8
  call void @llvm.lifetime.end.p0(i64 4, ptr %11) #8
  ret i32 %96
}

; Function Attrs: nounwind uwtable
define dso_local void @schedule_dir_for_removal(ptr noundef %0, i32 noundef %1) #0 {
  %3 = alloca ptr, align 8
  %4 = alloca i32, align 4
  %5 = alloca i32, align 4
  %6 = alloca i32, align 4
  %7 = alloca i32, align 4
  %8 = alloca i32, align 4
  %9 = alloca i32, align 4
  store ptr %0, ptr %3, align 8, !tbaa !9
  store i32 %1, ptr %4, align 4, !tbaa !11
  call void @llvm.lifetime.start.p0(i64 4, ptr %5) #8
  call void @llvm.lifetime.start.p0(i64 4, ptr %6) #8
  call void @llvm.lifetime.start.p0(i64 4, ptr %7) #8
  call void @llvm.lifetime.start.p0(i64 4, ptr %8) #8
  %10 = load ptr, ptr @startup_info, align 8, !tbaa !13
  %11 = getelementptr inbounds nuw %struct.startup_info, ptr %10, i32 0, i32 2
  %12 = load ptr, ptr %11, align 8, !tbaa !15
  %13 = icmp ne ptr %12, null
  br i1 %13, label %14, label %22

14:                                               ; preds = %2
  %15 = load ptr, ptr %3, align 8, !tbaa !9
  %16 = load ptr, ptr @startup_info, align 8, !tbaa !13
  %17 = getelementptr inbounds nuw %struct.startup_info, ptr %16, i32 0, i32 2
  %18 = load ptr, ptr %17, align 8, !tbaa !15
  %19 = call i32 @strcmp(ptr noundef %15, ptr noundef %18) #10
  %20 = icmp ne i32 %19, 0
  br i1 %20, label %22, label %21

21:                                               ; preds = %14
  store i32 1, ptr %9, align 4
  br label %71

22:                                               ; preds = %14, %2
  %23 = load ptr, ptr %3, align 8, !tbaa !9
  %24 = load i32, ptr %4, align 4, !tbaa !11
  %25 = load ptr, ptr getelementptr inbounds nuw (%struct.strbuf, ptr @removal, i32 0, i32 2), align 8, !tbaa !17
  %26 = load i64, ptr getelementptr inbounds nuw (%struct.strbuf, ptr @removal, i32 0, i32 1), align 8, !tbaa !20
  %27 = trunc i64 %26 to i32
  %28 = call i32 @longest_path_match(ptr noundef %23, i32 noundef %24, ptr noundef %25, i32 noundef %27, ptr noundef %8)
  store i32 %28, ptr %7, align 4, !tbaa !11
  store i32 %28, ptr %6, align 4, !tbaa !11
  store i32 %28, ptr %5, align 4, !tbaa !11
  br label %29

29:                                               ; preds = %43, %22
  %30 = load i32, ptr %7, align 4, !tbaa !11
  %31 = load i32, ptr %4, align 4, !tbaa !11
  %32 = icmp slt i32 %30, %31
  br i1 %32, label %33, label %46

33:                                               ; preds = %29
  %34 = load ptr, ptr %3, align 8, !tbaa !9
  %35 = load i32, ptr %7, align 4, !tbaa !11
  %36 = sext i32 %35 to i64
  %37 = getelementptr inbounds i8, ptr %34, i64 %36
  %38 = load i8, ptr %37, align 1, !tbaa !21
  %39 = sext i8 %38 to i32
  %40 = icmp eq i32 %39, 47
  br i1 %40, label %41, label %43

41:                                               ; preds = %33
  %42 = load i32, ptr %7, align 4, !tbaa !11
  store i32 %42, ptr %6, align 4, !tbaa !11
  br label %43

43:                                               ; preds = %41, %33
  %44 = load i32, ptr %7, align 4, !tbaa !11
  %45 = add nsw i32 %44, 1
  store i32 %45, ptr %7, align 4, !tbaa !11
  br label %29, !llvm.loop !22

46:                                               ; preds = %29
  %47 = load i32, ptr %5, align 4, !tbaa !11
  %48 = load i32, ptr %6, align 4, !tbaa !11
  %49 = icmp slt i32 %47, %48
  br i1 %49, label %50, label %57

50:                                               ; preds = %46
  %51 = load i32, ptr %5, align 4, !tbaa !11
  %52 = sext i32 %51 to i64
  %53 = load i64, ptr getelementptr inbounds nuw (%struct.strbuf, ptr @removal, i32 0, i32 1), align 8, !tbaa !20
  %54 = icmp ult i64 %52, %53
  br i1 %54, label %55, label %57

55:                                               ; preds = %50
  %56 = load i32, ptr %5, align 4, !tbaa !11
  call void @do_remove_scheduled_dirs(i32 noundef %56)
  br label %57

57:                                               ; preds = %55, %50, %46
  %58 = load i32, ptr %5, align 4, !tbaa !11
  %59 = load i32, ptr %6, align 4, !tbaa !11
  %60 = icmp slt i32 %58, %59
  br i1 %60, label %61, label %70

61:                                               ; preds = %57
  %62 = load ptr, ptr %3, align 8, !tbaa !9
  %63 = load i32, ptr %5, align 4, !tbaa !11
  %64 = sext i32 %63 to i64
  %65 = getelementptr inbounds i8, ptr %62, i64 %64
  %66 = load i32, ptr %6, align 4, !tbaa !11
  %67 = load i32, ptr %5, align 4, !tbaa !11
  %68 = sub nsw i32 %66, %67
  %69 = sext i32 %68 to i64
  call void @strbuf_add(ptr noundef @removal, ptr noundef %65, i64 noundef %69)
  br label %70

70:                                               ; preds = %61, %57
  store i32 0, ptr %9, align 4
  br label %71

71:                                               ; preds = %70, %21
  call void @llvm.lifetime.end.p0(i64 4, ptr %8) #8
  call void @llvm.lifetime.end.p0(i64 4, ptr %7) #8
  call void @llvm.lifetime.end.p0(i64 4, ptr %6) #8
  call void @llvm.lifetime.end.p0(i64 4, ptr %5) #8
  %72 = load i32, ptr %9, align 4
  switch i32 %72, label %74 [
    i32 0, label %73
    i32 1, label %73
  ]

73:                                               ; preds = %71, %71
  ret void

74:                                               ; preds = %71
  unreachable
}