; Function Attrs: nounwind uwtable
define dso_local void @schedule_dir_for_removal(ptr noundef %0, i32 noundef %1) local_unnamed_addr #0 {
  %3 = load ptr, ptr @startup_info, align 8, !tbaa !8
  %4 = getelementptr inbounds nuw i8, ptr %3, i64 16
  %5 = load ptr, ptr %4, align 8, !tbaa !11
  %.not = icmp eq ptr %5, null
  br i1 %.not, label %8, label %6

6:                                                ; preds = %2
  %7 = tail call i32 @strcmp(ptr noundef nonnull dereferenceable(1) %0, ptr noundef nonnull dereferenceable(1) %5) #13
  %.not22 = icmp eq i32 %7, 0
  br i1 %.not22, label %.critedge, label %8

8:                                                ; preds = %6, %2
  %9 = load ptr, ptr getelementptr inbounds nuw (i8, ptr @removal, i64 16), align 8, !tbaa !14
  %10 = load i64, ptr getelementptr inbounds nuw (i8, ptr @removal, i64 8), align 8, !tbaa !17
  %11 = trunc i64 %10 to i32
  %12 = icmp slt i32 %1, %11
  %13 = tail call i32 @llvm.smin.i32(i32 %1, i32 %11)
  %14 = icmp sgt i32 %13, 0
  br i1 %14, label %.lr.ph.preheader.i, label %.critedge.i

.lr.ph.preheader.i:                               ; preds = %8
  %wide.trip.count.i = zext nneg i32 %13 to i64
  br label %.lr.ph.i

.lr.ph.i:                                         ; preds = %20, %.lr.ph.preheader.i
  %indvars.iv.i = phi i64 [ 0, %.lr.ph.preheader.i ], [ %indvars.iv.next.i, %20 ]
  %.03242.i = phi i32 [ 0, %.lr.ph.preheader.i ], [ %spec.select.i, %20 ]
  %15 = getelementptr inbounds nuw i8, ptr %0, i64 %indvars.iv.i
  %16 = load i8, ptr %15, align 1, !tbaa !18
  %17 = getelementptr inbounds nuw i8, ptr %9, i64 %indvars.iv.i
  %18 = load i8, ptr %17, align 1, !tbaa !18
  %19 = icmp eq i8 %16, %18
  br i1 %19, label %20, label %longest_path_match.exit

20:                                               ; preds = %.lr.ph.i
  %21 = icmp eq i8 %16, 47
  %22 = trunc nuw nsw i64 %indvars.iv.i to i32
  %spec.select.i = select i1 %21, i32 %22, i32 %.03242.i
  %indvars.iv.next.i = add nuw nsw i64 %indvars.iv.i, 1
  %exitcond.not.i = icmp eq i64 %indvars.iv.next.i, %wide.trip.count.i
  br i1 %exitcond.not.i, label %.critedge.i, label %.lr.ph.i, !llvm.loop !19

.critedge.i:                                      ; preds = %20, %8
  %.032.lcssa.i = phi i32 [ 0, %8 ], [ %spec.select.i, %20 ]
  %.0.lcssa.i = phi i32 [ 0, %8 ], [ %13, %20 ]
  %23 = icmp sgt i32 %1, %11
  br i1 %23, label %24, label %29

24:                                               ; preds = %.critedge.i
  %sext = shl i64 %10, 32
  %25 = ashr exact i64 %sext, 32
  %26 = getelementptr inbounds i8, ptr %0, i64 %25
  %27 = load i8, ptr %26, align 1, !tbaa !18
  %28 = icmp eq i8 %27, 47
  br i1 %28, label %36, label %29

29:                                               ; preds = %24, %.critedge.i
  br i1 %12, label %30, label %35

30:                                               ; preds = %29
  %31 = sext i32 %1 to i64
  %32 = getelementptr inbounds i8, ptr %9, i64 %31
  %33 = load i8, ptr %32, align 1, !tbaa !18
  %34 = icmp eq i8 %33, 47
  br i1 %34, label %36, label %longest_path_match.exit

35:                                               ; preds = %29
  %.old.i = icmp eq i32 %1, %11
  br i1 %.old.i, label %36, label %longest_path_match.exit

36:                                               ; preds = %35, %30, %24
  br label %longest_path_match.exit

longest_path_match.exit:                          ; preds = %.lr.ph.i, %30, %35, %36
  %.234.i = phi i32 [ %.0.lcssa.i, %36 ], [ %.032.lcssa.i, %35 ], [ %.032.lcssa.i, %30 ], [ %.03242.i, %.lr.ph.i ]
  %37 = icmp slt i32 %.234.i, %1
  br i1 %37, label %.lr.ph.preheader, label %._crit_edge

.lr.ph.preheader:                                 ; preds = %longest_path_match.exit
  %38 = sext i32 %.234.i to i64
  %wide.trip.count = sext i32 %1 to i64
  br label %.lr.ph

.lr.ph:                                           ; preds = %.lr.ph.preheader, %.lr.ph
  %indvars.iv = phi i64 [ %38, %.lr.ph.preheader ], [ %indvars.iv.next, %.lr.ph ]
  %.01828 = phi i32 [ %.234.i, %.lr.ph.preheader ], [ %spec.select, %.lr.ph ]
  %39 = getelementptr inbounds i8, ptr %0, i64 %indvars.iv
  %40 = load i8, ptr %39, align 1, !tbaa !18
  %41 = icmp eq i8 %40, 47
  %42 = trunc nsw i64 %indvars.iv to i32
  %spec.select = select i1 %41, i32 %42, i32 %.01828
  %indvars.iv.next = add nsw i64 %indvars.iv, 1
  %exitcond.not = icmp eq i64 %indvars.iv.next, %wide.trip.count
  br i1 %exitcond.not, label %._crit_edge, label %.lr.ph, !llvm.loop !21

._crit_edge:                                      ; preds = %.lr.ph, %longest_path_match.exit
  %.018.lcssa = phi i32 [ %.234.i, %longest_path_match.exit ], [ %spec.select, %.lr.ph ]
  %43 = icmp slt i32 %.234.i, %.018.lcssa
  br i1 %43, label %44, label %.critedge

44:                                               ; preds = %._crit_edge
  %45 = sext i32 %.234.i to i64
  %46 = icmp ugt i64 %10, %45
  br i1 %46, label %.lr.ph.i24, label %68

.lr.ph.i24.loopexit:                              ; preds = %65
  br label %.lr.ph.i24, !llvm.loop !22

.lr.ph.i24:                                       ; preds = %44, %.lr.ph.i24.loopexit
  %47 = phi ptr [ %60, %.lr.ph.i24.loopexit ], [ %9, %44 ]
  %48 = phi i64 [ %63, %.lr.ph.i24.loopexit ], [ %10, %44 ]
  %49 = getelementptr inbounds nuw i8, ptr %47, i64 %48
  store i8 0, ptr %49, align 1, !tbaa !18
  %50 = load ptr, ptr @startup_info, align 8, !tbaa !8
  %51 = getelementptr inbounds nuw i8, ptr %50, i64 16
  %52 = load ptr, ptr %51, align 8, !tbaa !11
  %.not.i = icmp eq ptr %52, null
  %.pre13.i = load ptr, ptr getelementptr inbounds nuw (i8, ptr @removal, i64 16), align 8, !tbaa !14
  br i1 %.not.i, label %55, label %53

53:                                               ; preds = %.lr.ph.i24
  %54 = tail call i32 @strcmp(ptr noundef nonnull dereferenceable(1) %.pre13.i, ptr noundef nonnull dereferenceable(1) %52) #13
  %.not6.i = icmp eq i32 %54, 0
  br i1 %.not6.i, label %do_remove_scheduled_dirs.exit, label %55

55:                                               ; preds = %53, %.lr.ph.i24
  %56 = tail call i32 @rmdir(ptr noundef readonly %.pre13.i) #11
  %.not.i.i = icmp eq i32 %56, 0
  br i1 %.not.i.i, label %57, label %do_remove_scheduled_dirs.exit

57:                                               ; preds = %55
  store i64 0, ptr getelementptr inbounds nuw (i8, ptr @default_cache, i64 8), align 8, !tbaa !17
  %58 = load ptr, ptr getelementptr inbounds nuw (i8, ptr @default_cache, i64 16), align 8, !tbaa !14
  %.not9.i.i.i.i.i = icmp eq ptr %58, @strbuf_slopbuf
  br i1 %.not9.i.i.i.i.i, label %lstat_cache_aware_rmdir.exit.i, label %59

59:                                               ; preds = %57
  store i8 0, ptr %58, align 1, !tbaa !18
  br label %lstat_cache_aware_rmdir.exit.i

lstat_cache_aware_rmdir.exit.i:                   ; preds = %59, %57
  store i32 0, ptr getelementptr inbounds nuw (i8, ptr @default_cache, i64 24), align 8, !tbaa !23
  %.promoted.i = load i64, ptr getelementptr inbounds nuw (i8, ptr @removal, i64 8), align 8, !tbaa !17
  %60 = load ptr, ptr getelementptr inbounds nuw (i8, ptr @removal, i64 16), align 8
  br label %61

61:                                               ; preds = %65, %lstat_cache_aware_rmdir.exit.i
  %62 = phi i64 [ %.promoted.i, %lstat_cache_aware_rmdir.exit.i ], [ %63, %65 ]
  %63 = add i64 %62, -1
  store i64 %63, ptr getelementptr inbounds nuw (i8, ptr @removal, i64 8), align 8, !tbaa !17
  %64 = icmp ugt i64 %63, %45
  br i1 %64, label %65, label %do_remove_scheduled_dirs.exit

65:                                               ; preds = %61
  %66 = getelementptr inbounds nuw i8, ptr %60, i64 %63
  %67 = load i8, ptr %66, align 1, !tbaa !18
  %.not8.i = icmp eq i8 %67, 47
  br i1 %.not8.i, label %.lr.ph.i24.loopexit, label %61, !llvm.loop !22

do_remove_scheduled_dirs.exit:                    ; preds = %53, %55, %61
  store i64 %45, ptr getelementptr inbounds nuw (i8, ptr @removal, i64 8), align 8, !tbaa !17
  br label %68

68:                                               ; preds = %44, %do_remove_scheduled_dirs.exit
  %69 = getelementptr inbounds i8, ptr %0, i64 %45
  %70 = sub nsw i32 %.018.lcssa, %.234.i
  %71 = sext i32 %70 to i64
  tail call void @strbuf_add(ptr noundef nonnull @removal, ptr noundef %69, i64 noundef %71) #11
  br label %.critedge

.critedge:                                        ; preds = %68, %._crit_edge, %6
  ret void
}